target datalayout = "e-m:e-p270:32:32-p271:32:32-p272:64:64-i64:64-i128:128-f80:128-n8:16:32:64-S128"
target triple = "x86_64-pc-linux-gnu"

%struct.ssl_connection_st = type { %struct.ssl_st, ptr, i32, ptr, ptr, ptr, i32, ptr, i32, i32, i32, i32, %struct.OSSL_TIME, %struct.OSSL_TIME, %struct.ossl_statem_st, i32, ptr, ptr, i64, i64, i64, %struct.ossl_quic_tls_callbacks_st, ptr, ptr, %struct.anon, ptr, ptr, ptr, i32, ptr, %struct.ssl_dane_st, ptr, ptr, ptr, ptr, i32, [64 x i8], [64 x i8], [64 x i8], [64 x i8], [64 x i8], [64 x i8], [64 x i8], [64 x i8], [64 x i8], [64 x i8], [64 x i8], [64 x i8], ptr, [64 x i8], i64, i32, i64, [32 x i8], ptr, ptr, ptr, i64, ptr, [32 x i8], i64, i32, ptr, ptr, i32, i32, ptr, ptr, ptr, ptr, ptr, i64, ptr, ptr, i64, i32, i32, i32, i64, i32, i32, i64, i64, i64, %struct.anon.1, ptr, i32, ptr, ptr, ptr, i32, ptr, ptr, ptr, i32, i32, i32, i32, ptr, i64, i32, ptr, %struct.srp_ctx_st, ptr, %struct.record_layer_st, ptr, ptr, ptr, ptr, i64, i32, i32, i32, i64, i64, i64, ptr, ptr, ptr, ptr, ptr, i64, ptr, i64, ptr, i64 }
%struct.ssl_st = type { i32, ptr, ptr, ptr, %struct.CRYPTO_REF_COUNT, ptr, %struct.crypto_ex_data_st }
%struct.CRYPTO_REF_COUNT = type { i32 }
%struct.crypto_ex_data_st = type { ptr, ptr }
%struct.OSSL_TIME = type { i64 }
%struct.ossl_statem_st = type { i32, i32, i32, i32, i32, i32, i32, i32, i32, i32, i32, i32, i32, ptr, ptr, ptr, i8 }
%struct.ossl_quic_tls_callbacks_st = type { ptr, ptr, ptr, ptr, ptr, ptr }
%struct.anon = type { i64, [32 x i8], [32 x i8], ptr, ptr, i32, i32, i32, i32, [2 x i8], i32, i32, i32, i32, %struct.anon.0, [64 x i8], i64, [64 x i8], i64, i32, i32, ptr, i64, ptr, i64, i32, i8, i8, i16, ptr, i16 }
%struct.anon.0 = type { [128 x i8], i64, [128 x i8], i64, i64, i32, ptr, ptr, [4 x ptr], [4 x i16], i64, i32, ptr, i64, ptr, i64, ptr, ptr, ptr, i32, i64, ptr, i32, ptr, i64, ptr, i64, ptr, i64, ptr, ptr, ptr, ptr, i64, i64, ptr, ptr, i32, i32, i32, i32 }
%struct.ssl_dane_st = type { ptr, ptr, ptr, ptr, ptr, i32, i32, i32, i64 }
%struct.anon.1 = type { [29 x i8], ptr, ptr, ptr, i32, ptr, i16, i32, %struct.anon.2, i32, i32, i64, ptr, i64, ptr, i64, ptr, i64, ptr, i64, ptr, i64, ptr, ptr, ptr, ptr, ptr, ptr, ptr, i64, ptr, i64, i32, i32, i32, i32, ptr, i64, i32, i8, i32, [4 x i32], i32, i8, i8, i8, i8 }
%struct.anon.2 = type { ptr, ptr, ptr, i64 }
%struct.srp_ctx_st = type { ptr, ptr, ptr, ptr, ptr, ptr, ptr, ptr, ptr, ptr, ptr, ptr, ptr, ptr, i32, i64 }
%struct.record_layer_st = type { ptr, ptr, ptr, ptr, ptr, ptr, ptr, ptr, i64, i32, i64, [4 x i8], i64, i64, i8, ptr, i32, ptr, ptr, ptr, i64, i64, i64, i64, [32 x %struct.tls_record_st] }
%struct.tls_record_st = type { ptr, i32, i8, ptr, ptr, i64, i64, i16, [8 x i8] }
%struct.ssl_method_st = type { i32, i32, i64, ptr, ptr, ptr, ptr, ptr, ptr, ptr, ptr, ptr, ptr, ptr, ptr, ptr, ptr, ptr, ptr, ptr, ptr, ptr, ptr, ptr, ptr, ptr, ptr, ptr, ptr, ptr, ptr, ptr }
%struct.ssl3_enc_method = type { ptr, ptr, ptr, ptr, ptr, i64, ptr, i64, ptr, ptr, i32, ptr, ptr, ptr }
%struct.cert_st = type { ptr, ptr, ptr, i32, i32, ptr, i64, ptr, i64, ptr, i64, ptr, i64, ptr, ptr, ptr, ptr, %struct.custom_ext_methods, ptr, i32, ptr, ptr, %struct.CRYPTO_REF_COUNT }
%struct.custom_ext_methods = type { ptr, i64 }

@.str = private unnamed_addr constant [36 x i8] c"../openssl/ssl/statem/statem_clnt.c\00", align 1
@__func__.tls_construct_client_certificate = private unnamed_addr constant [33 x i8] c"tls_construct_client_certificate\00", align 1

; Function Attrs: nounwind uwtable
define i32 @tls_construct_client_certificate(ptr noundef %0, ptr noundef %1) #0 {
  %3 = alloca i32, align 4
  %4 = alloca ptr, align 8
  %5 = alloca ptr, align 8
  %6 = alloca ptr, align 8
  %7 = alloca ptr, align 8
  %8 = alloca i32, align 4
  store ptr %0, ptr %4, align 8, !tbaa !3
  store ptr %1, ptr %5, align 8, !tbaa !127
  call void @llvm.lifetime.start.p0(i64 8, ptr %6) #8
  store ptr null, ptr %6, align 8, !tbaa !165
  call void @llvm.lifetime.start.p0(i64 8, ptr %7) #8
  %9 = load ptr, ptr %4, align 8, !tbaa !3
  %10 = getelementptr inbounds nuw %struct.ssl_connection_st, ptr %9, i32 0, i32 0
  store ptr %10, ptr %7, align 8, !tbaa !110
  %11 = load ptr, ptr %4, align 8, !tbaa !3
  %12 = getelementptr inbounds nuw %struct.ssl_connection_st, ptr %11, i32 0, i32 0
  %13 = getelementptr inbounds nuw %struct.ssl_st, ptr %12, i32 0, i32 3
  %14 = load ptr, ptr %13, align 8, !tbaa !12
  %15 = getelementptr inbounds nuw %struct.ssl_method_st, ptr %14, i32 0, i32 28
  %16 = load ptr, ptr %15, align 8, !tbaa !73
  %17 = getelementptr inbounds nuw %struct.ssl3_enc_method, ptr %16, i32 0, i32 10
  %18 = load i32, ptr %17, align 8, !tbaa !76
  %19 = and i32 %18, 8
  %20 = icmp ne i32 %19, 0
  br i1 %20, label %63, label %21

21:                                               ; preds = %2
  %22 = load ptr, ptr %4, align 8, !tbaa !3
  %23 = getelementptr inbounds nuw %struct.ssl_connection_st, ptr %22, i32 0, i32 0
  %24 = getelementptr inbounds nuw %struct.ssl_st, ptr %23, i32 0, i32 3
  %25 = load ptr, ptr %24, align 8, !tbaa !12
  %26 = getelementptr inbounds nuw %struct.ssl_method_st, ptr %25, i32 0, i32 0
  %27 = load i32, ptr %26, align 8, !tbaa !78
  %28 = icmp sge i32 %27, 772
  br i1 %28, label %29, label %63

29:                                               ; preds = %21
  %30 = load ptr, ptr %4, align 8, !tbaa !3
  %31 = getelementptr inbounds nuw %struct.ssl_connection_st, ptr %30, i32 0, i32 0
  %32 = getelementptr inbounds nuw %struct.ssl_st, ptr %31, i32 0, i32 3
  %33 = load ptr, ptr %32, align 8, !tbaa !12
  %34 = getelementptr inbounds nuw %struct.ssl_method_st, ptr %33, i32 0, i32 0
  %35 = load i32, ptr %34, align 8, !tbaa !78
  %36 = icmp ne i32 %35, 65536
  br i1 %36, label %37, label %63

37:                                               ; preds = %29
  %38 = load ptr, ptr %4, align 8, !tbaa !3
  %39 = getelementptr inbounds nuw %struct.ssl_connection_st, ptr %38, i32 0, i32 98
  %40 = load ptr, ptr %39, align 8, !tbaa !166
  %41 = icmp eq ptr %40, null
  br i1 %41, label %42, label %49

42:                                               ; preds = %37
  %43 = load ptr, ptr %5, align 8, !tbaa !127
  %44 = call i32 @WPACKET_put_bytes__(ptr noundef %43, i64 noundef 0, i64 noundef 1)
  %45 = icmp ne i32 %44, 0
  br i1 %45, label %48, label %46

46:                                               ; preds = %42
  call void @ERR_new()
  call void @ERR_set_debug(ptr noundef @.str, i32 noundef 3780, ptr noundef @__func__.tls_construct_client_certificate)
  %47 = load ptr, ptr %4, align 8, !tbaa !3
  call void (ptr, i32, i32, ptr, ...) @ossl_statem_fatal(ptr noundef %47, i32 noundef 80, i32 noundef 786691, ptr noundef null)
  store i32 0, ptr %3, align 4
  store i32 1, ptr %8, align 4
  br label %166

48:                                               ; preds = %42
  br label %62

49:                                               ; preds = %37
  %50 = load ptr, ptr %5, align 8, !tbaa !127
  %51 = load ptr, ptr %4, align 8, !tbaa !3
  %52 = getelementptr inbounds nuw %struct.ssl_connection_st, ptr %51, i32 0, i32 98
  %53 = load ptr, ptr %52, align 8, !tbaa !166
  %54 = load ptr, ptr %4, align 8, !tbaa !3
  %55 = getelementptr inbounds nuw %struct.ssl_connection_st, ptr %54, i32 0, i32 99
  %56 = load i64, ptr %55, align 8, !tbaa !167
  %57 = call i32 @WPACKET_sub_memcpy__(ptr noundef %50, ptr noundef %53, i64 noundef %56, i64 noundef 1)
  %58 = icmp ne i32 %57, 0
  br i1 %58, label %61, label %59

59:                                               ; preds = %49
  call void @ERR_new()
  call void @ERR_set_debug(ptr noundef @.str, i32 noundef 3784, ptr noundef @__func__.tls_construct_client_certificate)
  %60 = load ptr, ptr %4, align 8, !tbaa !3
  call void (ptr, i32, i32, ptr, ...) @ossl_statem_fatal(ptr noundef %60, i32 noundef 80, i32 noundef 786691, ptr noundef null)
  store i32 0, ptr %3, align 4
  store i32 1, ptr %8, align 4
  br label %166

61:                                               ; preds = %49
  br label %62

62:                                               ; preds = %61, %48
  br label %63

63:                                               ; preds = %62, %29, %21, %2
  %64 = load ptr, ptr %4, align 8, !tbaa !3
  %65 = getelementptr inbounds nuw %struct.ssl_connection_st, ptr %64, i32 0, i32 24
  %66 = getelementptr inbounds nuw %struct.anon, ptr %65, i32 0, i32 14
  %67 = getelementptr inbounds nuw %struct.anon.0, ptr %66, i32 0, i32 11
  %68 = load i32, ptr %67, align 8, !tbaa !103
  %69 = icmp ne i32 %68, 2
  br i1 %69, label %70, label %76

70:                                               ; preds = %63
  %71 = load ptr, ptr %4, align 8, !tbaa !3
  %72 = getelementptr inbounds nuw %struct.ssl_connection_st, ptr %71, i32 0, i32 48
  %73 = load ptr, ptr %72, align 8, !tbaa !168
  %74 = getelementptr inbounds nuw %struct.cert_st, ptr %73, i32 0, i32 0
  %75 = load ptr, ptr %74, align 8, !tbaa !169
  store ptr %75, ptr %6, align 8, !tbaa !165
  br label %76

76:                                               ; preds = %70, %63
  %77 = load ptr, ptr %4, align 8, !tbaa !3
  %78 = getelementptr inbounds nuw %struct.ssl_connection_st, ptr %77, i32 0, i32 84
  %79 = getelementptr inbounds nuw %struct.anon.1, ptr %78, i32 0, i32 43
  %80 = load i8, ptr %79, align 8, !tbaa !172
  %81 = zext i8 %80 to i32
  switch i32 %81, label %98 [
    i32 2, label %82
    i32 0, label %90
  ]

82:                                               ; preds = %76
  %83 = load ptr, ptr %4, align 8, !tbaa !3
  %84 = load ptr, ptr %5, align 8, !tbaa !127
  %85 = load ptr, ptr %6, align 8, !tbaa !165
  %86 = call i64 @tls_output_rpk(ptr noundef %83, ptr noundef %84, ptr noundef %85)
  %87 = icmp ne i64 %86, 0
  br i1 %87, label %89, label %88

88:                                               ; preds = %82
  store i32 0, ptr %3, align 4
  store i32 1, ptr %8, align 4
  br label %166

89:                                               ; preds = %82
  br label %100

90:                                               ; preds = %76
  %91 = load ptr, ptr %4, align 8, !tbaa !3
  %92 = load ptr, ptr %5, align 8, !tbaa !127
  %93 = load ptr, ptr %6, align 8, !tbaa !165
  %94 = call i64 @ssl3_output_cert_chain(ptr noundef %91, ptr noundef %92, ptr noundef %93, i32 noundef 0)
  %95 = icmp ne i64 %94, 0
  br i1 %95, label %97, label %96

96:                                               ; preds = %90
  store i32 0, ptr %3, align 4
  store i32 1, ptr %8, align 4
  br label %166

97:                                               ; preds = %90
  br label %100

98:                                               ; preds = %76
  call void @ERR_new()
  call void @ERR_set_debug(ptr noundef @.str, i32 noundef 3804, ptr noundef @__func__.tls_construct_client_certificate)
  %99 = load ptr, ptr %4, align 8, !tbaa !3
  call void (ptr, i32, i32, ptr, ...) @ossl_statem_fatal(ptr noundef %99, i32 noundef 80, i32 noundef 786691, ptr noundef null)
  store i32 0, ptr %3, align 4
  store i32 1, ptr %8, align 4
  br label %166

100:                                              ; preds = %97, %89
  %101 = load ptr, ptr %4, align 8, !tbaa !3
  %102 = getelementptr inbounds nuw %struct.ssl_connection_st, ptr %101, i32 0, i32 0
  %103 = getelementptr inbounds nuw %struct.ssl_st, ptr %102, i32 0, i32 3
  %104 = load ptr, ptr %103, align 8, !tbaa !12
  %105 = getelementptr inbounds nuw %struct.ssl_method_st, ptr %104, i32 0, i32 28
  %106 = load ptr, ptr %105, align 8, !tbaa !73
  %107 = getelementptr inbounds nuw %struct.ssl3_enc_method, ptr %106, i32 0, i32 10
  %108 = load i32, ptr %107, align 8, !tbaa !76
  %109 = and i32 %108, 8
  %110 = icmp ne i32 %109, 0
  br i1 %110, label %165, label %111

111:                                              ; preds = %100
  %112 = load ptr, ptr %4, align 8, !tbaa !3
  %113 = getelementptr inbounds nuw %struct.ssl_connection_st, ptr %112, i32 0, i32 0
  %114 = getelementptr inbounds nuw %struct.ssl_st, ptr %113, i32 0, i32 3
  %115 = load ptr, ptr %114, align 8, !tbaa !12
  %116 = getelementptr inbounds nuw %struct.ssl_method_st, ptr %115, i32 0, i32 0
  %117 = load i32, ptr %116, align 8, !tbaa !78
  %118 = icmp sge i32 %117, 772
  br i1 %118, label %119, label %165

119:                                              ; preds = %111
  %120 = load ptr, ptr %4, align 8, !tbaa !3
  %121 = getelementptr inbounds nuw %struct.ssl_connection_st, ptr %120, i32 0, i32 0
  %122 = getelementptr inbounds nuw %struct.ssl_st, ptr %121, i32 0, i32 3
  %123 = load ptr, ptr %122, align 8, !tbaa !12
  %124 = getelementptr inbounds nuw %struct.ssl_method_st, ptr %123, i32 0, i32 0
  %125 = load i32, ptr %124, align 8, !tbaa !78
  %126 = icmp ne i32 %125, 65536
  br i1 %126, label %127, label %165

127:                                              ; preds = %119
  %128 = load ptr, ptr %4, align 8, !tbaa !3
  %129 = getelementptr inbounds nuw %struct.ssl_connection_st, ptr %128, i32 0, i32 24
  %130 = getelementptr inbounds nuw %struct.anon, ptr %129, i32 0, i32 14
  %131 = getelementptr inbounds nuw %struct.anon.0, ptr %130, i32 0, i32 1
  %132 = load i64, ptr %131, align 8, !tbaa !173
  %133 = icmp eq i64 %132, 0
  br i1 %133, label %141, label %134

134:                                              ; preds = %127
  %135 = load ptr, ptr %4, align 8, !tbaa !3
  %136 = getelementptr inbounds nuw %struct.ssl_connection_st, ptr %135, i32 0, i32 24
  %137 = getelementptr inbounds nuw %struct.anon, ptr %136, i32 0, i32 14
  %138 = getelementptr inbounds nuw %struct.anon.0, ptr %137, i32 0, i32 3
  %139 = load i64, ptr %138, align 8, !tbaa !174
  %140 = icmp eq i64 %139, 0
  br i1 %140, label %141, label %165

141:                                              ; preds = %134, %127
  %142 = load ptr, ptr %4, align 8, !tbaa !3
  %143 = getelementptr inbounds nuw %struct.ssl_connection_st, ptr %142, i32 0, i32 15
  %144 = load i32, ptr %143, align 8, !tbaa !100
  %145 = icmp ne i32 %144, 0
  br i1 %145, label %152, label %146

146:                                              ; preds = %141
  %147 = load ptr, ptr %4, align 8, !tbaa !3
  %148 = getelementptr inbounds nuw %struct.ssl_connection_st, ptr %147, i32 0, i32 74
  %149 = load i64, ptr %148, align 8, !tbaa !101
  %150 = and i64 %149, 1048576
  %151 = icmp ne i64 %150, 0
  br i1 %151, label %152, label %165

152:                                              ; preds = %146, %141
  %153 = load ptr, ptr %7, align 8, !tbaa !110
  %154 = getelementptr inbounds nuw %struct.ssl_st, ptr %153, i32 0, i32 3
  %155 = load ptr, ptr %154, align 8, !tbaa !119
  %156 = getelementptr inbounds nuw %struct.ssl_method_st, ptr %155, i32 0, i32 28
  %157 = load ptr, ptr %156, align 8, !tbaa !73
  %158 = getelementptr inbounds nuw %struct.ssl3_enc_method, ptr %157, i32 0, i32 2
  %159 = load ptr, ptr %158, align 8, !tbaa !121
  %160 = load ptr, ptr %4, align 8, !tbaa !3
  %161 = call i32 %159(ptr noundef %160, i32 noundef 146)
  %162 = icmp ne i32 %161, 0
  br i1 %162, label %165, label %163

163:                                              ; preds = %152
  call void @ERR_new()
  call void @ERR_set_debug(ptr noundef @.str, i32 noundef 3823, ptr noundef @__func__.tls_construct_client_certificate)
  %164 = load ptr, ptr %4, align 8, !tbaa !3
  call void (ptr, i32, i32, ptr, ...) @ossl_statem_fatal(ptr noundef %164, i32 noundef -1, i32 noundef 109, ptr noundef null)
  store i32 0, ptr %3, align 4
  store i32 1, ptr %8, align 4
  br label %166

165:                                              ; preds = %152, %146, %134, %119, %111, %100
  store i32 1, ptr %3, align 4
  store i32 1, ptr %8, align 4
  br label %166

166:                                              ; preds = %165, %163, %98, %96, %88, %59, %46
  call void @llvm.lifetime.end.p0(i64 8, ptr %7) #8
  call void @llvm.lifetime.end.p0(i64 8, ptr %6) #8
  %167 = load i32, ptr %3, align 4
  ret i32 %167
}