; Function Attrs: nounwind uwtable
define range(i32 0, 2) i32 @tls_construct_client_certificate(ptr noundef %0, ptr noundef %1) #0 {
  %3 = getelementptr inbounds nuw i8, ptr %0, i64 24
  %4 = load ptr, ptr %3, align 8, !tbaa !3
  %5 = getelementptr inbounds nuw i8, ptr %4, i64 216
  %6 = load ptr, ptr %5, align 8, !tbaa !69
  %7 = getelementptr inbounds nuw i8, ptr %6, i64 80
  %8 = load i32, ptr %7, align 8, !tbaa !72
  %9 = and i32 %8, 8
  %.not = icmp eq i32 %9, 0
  br i1 %.not, label %10, label %25

10:                                               ; preds = %2
  %11 = load i32, ptr %4, align 8, !tbaa !74
  %12 = icmp slt i32 %11, 772
  %.not35 = icmp eq i32 %11, 65536
  %or.cond = or i1 %12, %.not35
  br i1 %or.cond, label %25, label %13

13:                                               ; preds = %10
  %14 = getelementptr inbounds nuw i8, ptr %0, i64 2992
  %15 = load ptr, ptr %14, align 8, !tbaa !154
  %16 = icmp eq ptr %15, null
  br i1 %16, label %17, label %20

17:                                               ; preds = %13
  %18 = tail call i32 @WPACKET_put_bytes__(ptr noundef %1, i64 noundef 0, i64 noundef 1) #8
  %.not37 = icmp eq i32 %18, 0
  br i1 %.not37, label %19, label %25

19:                                               ; preds = %17
  tail call void @ERR_new() #8
  tail call void @ERR_set_debug(ptr noundef nonnull @.str, i32 noundef 3780, ptr noundef nonnull @__func__.tls_construct_client_certificate) #8
  tail call void (ptr, i32, i32, ptr, ...) @ossl_statem_fatal(ptr noundef nonnull %0, i32 noundef 80, i32 noundef 786691, ptr noundef null) #8
  br label %70

20:                                               ; preds = %13
  %21 = getelementptr inbounds nuw i8, ptr %0, i64 3000
  %22 = load i64, ptr %21, align 8, !tbaa !155
  %23 = tail call i32 @WPACKET_sub_memcpy__(ptr noundef %1, ptr noundef nonnull %15, i64 noundef %22, i64 noundef 1) #8
  %.not36 = icmp eq i32 %23, 0
  br i1 %.not36, label %24, label %25

24:                                               ; preds = %20
  tail call void @ERR_new() #8
  tail call void @ERR_set_debug(ptr noundef nonnull @.str, i32 noundef 3784, ptr noundef nonnull @__func__.tls_construct_client_certificate) #8
  tail call void (ptr, i32, i32, ptr, ...) @ossl_statem_fatal(ptr noundef nonnull %0, i32 noundef 80, i32 noundef 786691, ptr noundef null) #8
  br label %70

25:                                               ; preds = %17, %20, %10, %2
  %26 = getelementptr inbounds nuw i8, ptr %0, i64 832
  %27 = load i32, ptr %26, align 8, !tbaa !100
  %.not38 = icmp eq i32 %27, 2
  br i1 %.not38, label %32, label %28

28:                                               ; preds = %25
  %29 = getelementptr inbounds nuw i8, ptr %0, i64 2176
  %30 = load ptr, ptr %29, align 8, !tbaa !156
  %31 = load ptr, ptr %30, align 8, !tbaa !157
  br label %32

32:                                               ; preds = %28, %25
  %.031 = phi ptr [ %31, %28 ], [ null, %25 ]
  %33 = getelementptr inbounds nuw i8, ptr %0, i64 2896
  %34 = load i8, ptr %33, align 8, !tbaa !93
  switch i8 %34, label %39 [
    i8 2, label %35
    i8 0, label %37
  ]

35:                                               ; preds = %32
  %36 = tail call i64 @tls_output_rpk(ptr noundef nonnull %0, ptr noundef %1, ptr noundef %.031) #8
  %.not40 = icmp eq i64 %36, 0
  br i1 %.not40, label %70, label %40

37:                                               ; preds = %32
  %38 = tail call i64 @ssl3_output_cert_chain(ptr noundef nonnull %0, ptr noundef %1, ptr noundef %.031, i32 noundef 0) #8
  %.not39 = icmp eq i64 %38, 0
  br i1 %.not39, label %70, label %40

39:                                               ; preds = %32
  tail call void @ERR_new() #8
  tail call void @ERR_set_debug(ptr noundef nonnull @.str, i32 noundef 3804, ptr noundef nonnull @__func__.tls_construct_client_certificate) #8
  tail call void (ptr, i32, i32, ptr, ...) @ossl_statem_fatal(ptr noundef nonnull %0, i32 noundef 80, i32 noundef 786691, ptr noundef null) #8
  br label %70

40:                                               ; preds = %37, %35
  %41 = load ptr, ptr %3, align 8, !tbaa !3
  %42 = getelementptr inbounds nuw i8, ptr %41, i64 216
  %43 = load ptr, ptr %42, align 8, !tbaa !69
  %44 = getelementptr inbounds nuw i8, ptr %43, i64 80
  %45 = load i32, ptr %44, align 8, !tbaa !72
  %46 = and i32 %45, 8
  %.not41 = icmp eq i32 %46, 0
  br i1 %.not41, label %47, label %70

47:                                               ; preds = %40
  %48 = load i32, ptr %41, align 8, !tbaa !74
  %49 = icmp slt i32 %48, 772
  %.not42 = icmp eq i32 %48, 65536
  %or.cond46 = or i1 %49, %.not42
  br i1 %or.cond46, label %70, label %50

50:                                               ; preds = %47
  %51 = getelementptr inbounds nuw i8, ptr %0, i64 608
  %52 = load i64, ptr %51, align 8, !tbaa !160
  %53 = icmp eq i64 %52, 0
  br i1 %53, label %58, label %54

54:                                               ; preds = %50
  %55 = getelementptr inbounds nuw i8, ptr %0, i64 744
  %56 = load i64, ptr %55, align 8, !tbaa !161
  %57 = icmp eq i64 %56, 0
  br i1 %57, label %58, label %70

58:                                               ; preds = %54, %50
  %59 = getelementptr inbounds nuw i8, ptr %0, i64 240
  %60 = load i32, ptr %59, align 8, !tbaa !97
  %.not43 = icmp eq i32 %60, 0
  br i1 %.not43, label %61, label %65

61:                                               ; preds = %58
  %62 = getelementptr inbounds nuw i8, ptr %0, i64 2480
  %63 = load i64, ptr %62, align 8, !tbaa !98
  %64 = and i64 %63, 1048576
  %.not44 = icmp eq i64 %64, 0
  br i1 %.not44, label %70, label %65

65:                                               ; preds = %61, %58
  %66 = getelementptr inbounds nuw i8, ptr %43, i64 16
  %67 = load ptr, ptr %66, align 8, !tbaa !117
  %68 = tail call i32 %67(ptr noundef nonnull %0, i32 noundef 146) #8
  %.not45 = icmp eq i32 %68, 0
  br i1 %.not45, label %69, label %70

69:                                               ; preds = %65
  tail call void @ERR_new() #8
  tail call void @ERR_set_debug(ptr noundef nonnull @.str, i32 noundef 3823, ptr noundef nonnull @__func__.tls_construct_client_certificate) #8
  tail call void (ptr, i32, i32, ptr, ...) @ossl_statem_fatal(ptr noundef nonnull %0, i32 noundef -1, i32 noundef 109, ptr noundef null) #8
  br label %70

70:                                               ; preds = %40, %47, %54, %61, %65, %37, %35, %69, %39, %24, %19
  %.0 = phi i32 [ 0, %39 ], [ 0, %69 ], [ 0, %19 ], [ 0, %24 ], [ 0, %35 ], [ 0, %37 ], [ 1, %65 ], [ 1, %61 ], [ 1, %54 ], [ 1, %47 ], [ 1, %40 ]
  ret i32 %.0
}